target datalayout = "e-m:e-p270:32:32-p271:32:32-p272:64:64-i64:64-i128:128-f80:128-n8:16:32:64-S128"
target triple = "x86_64-pc-linux-gnu"

%struct.nghttp2_frame_hd = type { i64, i32, i8, i8, i8 }
%struct.nghttp2_headers = type { %struct.nghttp2_frame_hd, i64, %struct.nghttp2_priority_spec, ptr, i64, i32 }
%struct.nghttp2_priority_spec = type { i32, i32, i8 }

; Function Attrs: nounwind uwtable
define hidden void @nghttp2_frame_unpack_priority_spec(ptr noundef %0, ptr noundef %1) #0 {
  %3 = alloca ptr, align 8
  %4 = alloca ptr, align 8
  %5 = alloca i32, align 4
  %6 = alloca i8, align 1
  %7 = alloca i32, align 4
  store ptr %0, ptr %3, align 8, !tbaa !8
  store ptr %1, ptr %4, align 8, !tbaa !3
  call void @llvm.lifetime.start.p0(i64 4, ptr %5) #7
  call void @llvm.lifetime.start.p0(i64 1, ptr %6) #7
  call void @llvm.lifetime.start.p0(i64 4, ptr %7) #7
  %8 = load ptr, ptr %4, align 8, !tbaa !3
  %9 = call i32 @nghttp2_get_uint32(ptr noundef %8)
  %10 = and i32 %9, 2147483647
  store i32 %10, ptr %5, align 4, !tbaa !19
  %11 = load ptr, ptr %4, align 8, !tbaa !3
  %12 = getelementptr inbounds i8, ptr %11, i64 0
  %13 = load i8, ptr %12, align 1, !tbaa !14
  %14 = zext i8 %13 to i32
  %15 = and i32 %14, 128
  %16 = icmp sgt i32 %15, 0
  %17 = zext i1 %16 to i32
  %18 = trunc i32 %17 to i8
  store i8 %18, ptr %6, align 1, !tbaa !14
  %19 = load ptr, ptr %4, align 8, !tbaa !3
  %20 = getelementptr inbounds i8, ptr %19, i64 4
  %21 = load i8, ptr %20, align 1, !tbaa !14
  %22 = zext i8 %21 to i32
  %23 = add nsw i32 %22, 1
  store i32 %23, ptr %7, align 4, !tbaa !19
  %24 = load ptr, ptr %3, align 8, !tbaa !8
  %25 = load i32, ptr %5, align 4, !tbaa !19
  %26 = load i32, ptr %7, align 4, !tbaa !19
  %27 = load i8, ptr %6, align 1, !tbaa !14
  %28 = zext i8 %27 to i32
  call void @nghttp2_priority_spec_init(ptr noundef %24, i32 noundef %25, i32 noundef %26, i32 noundef %28)
  call void @llvm.lifetime.end.p0(i64 4, ptr %7) #7
  call void @llvm.lifetime.end.p0(i64 1, ptr %6) #7
  call void @llvm.lifetime.end.p0(i64 4, ptr %5) #7
  ret void
}

; Function Attrs: nounwind uwtable
define hidden void @nghttp2_frame_unpack_headers_payload(ptr noundef %0, ptr noundef %1) #0 {
  %3 = alloca ptr, align 8
  %4 = alloca ptr, align 8
  store ptr %0, ptr %3, align 8, !tbaa !8
  store ptr %1, ptr %4, align 8, !tbaa !3
  %5 = load ptr, ptr %3, align 8, !tbaa !8
  %6 = getelementptr inbounds nuw %struct.nghttp2_headers, ptr %5, i32 0, i32 0
  %7 = getelementptr inbounds nuw %struct.nghttp2_frame_hd, ptr %6, i32 0, i32 3
  %8 = load i8, ptr %7, align 1, !tbaa !67
  %9 = zext i8 %8 to i32
  %10 = and i32 %9, 32
  %11 = icmp ne i32 %10, 0
  br i1 %11, label %12, label %16

12:                                               ; preds = %2
  %13 = load ptr, ptr %3, align 8, !tbaa !8
  %14 = getelementptr inbounds nuw %struct.nghttp2_headers, ptr %13, i32 0, i32 2
  %15 = load ptr, ptr %4, align 8, !tbaa !3
  call void @nghttp2_frame_unpack_priority_spec(ptr noundef %14, ptr noundef %15)
  br label %19

16:                                               ; preds = %2
  %17 = load ptr, ptr %3, align 8, !tbaa !8
  %18 = getelementptr inbounds nuw %struct.nghttp2_headers, ptr %17, i32 0, i32 2
  call void @nghttp2_priority_spec_default_init(ptr noundef %18)
  br label %19

19:                                               ; preds = %16, %12
  %20 = load ptr, ptr %3, align 8, !tbaa !8
  %21 = getelementptr inbounds nuw %struct.nghttp2_headers, ptr %20, i32 0, i32 3
  store ptr null, ptr %21, align 8, !tbaa !23
  %22 = load ptr, ptr %3, align 8, !tbaa !8
  %23 = getelementptr inbounds nuw %struct.nghttp2_headers, ptr %22, i32 0, i32 4
  store i64 0, ptr %23, align 8, !tbaa !24
  ret void
}