; Function Attrs: nounwind uwtable
define hidden void @nghttp2_frame_unpack_headers_payload(ptr noundef %0, ptr noundef %1) local_unnamed_addr #0 {
  %3 = getelementptr inbounds nuw i8, ptr %0, i64 13
  %4 = load i8, ptr %3, align 1, !tbaa !64
  %5 = and i8 %4, 32
  %.not = icmp eq i8 %5, 0
  %6 = getelementptr inbounds nuw i8, ptr %0, i64 24
  br i1 %.not, label %16, label %7

7:                                                ; preds = %2
  %8 = tail call i32 @nghttp2_get_uint32(ptr noundef %1) #18
  %9 = and i32 %8, 2147483647
  %10 = load i8, ptr %1, align 1, !tbaa !10
  %.lobit.i = lshr i8 %10, 7
  %11 = getelementptr inbounds nuw i8, ptr %1, i64 4
  %12 = load i8, ptr %11, align 1, !tbaa !10
  %13 = zext i8 %12 to i32
  %14 = add nuw nsw i32 %13, 1
  %15 = zext nneg i8 %.lobit.i to i32
  tail call void @nghttp2_priority_spec_init(ptr noundef nonnull %6, i32 noundef %9, i32 noundef %14, i32 noundef %15) #18
  br label %17

16:                                               ; preds = %2
  tail call void @nghttp2_priority_spec_default_init(ptr noundef nonnull %6) #18
  br label %17

17:                                               ; preds = %16, %7
  %18 = getelementptr inbounds nuw i8, ptr %0, i64 40
  tail call void @llvm.memset.p0.i64(ptr noundef nonnull align 8 dereferenceable(16) %18, i8 0, i64 16, i1 false)
  ret void
}